target datalayout = "e-m:e-p270:32:32-p271:32:32-p272:64:64-i64:64-i128:128-f80:128-n8:16:32:64-S128"
target triple = "x86_64-pc-linux-gnu"

%struct.AVProbeData = type { ptr, ptr, i32, ptr }

@sync_header = internal constant [12 x i8] c"\00\FF\FF\FF\FF\FF\FF\FF\FF\FF\FF\00", align 1

; Function Attrs: nounwind uwtable
define internal i32 @str_probe(ptr noundef %0) #0 {
  %2 = alloca i32, align 4
  %3 = alloca ptr, align 8
  %4 = alloca ptr, align 8
  %5 = alloca ptr, align 8
  %6 = alloca i32, align 4
  %7 = alloca i32, align 4
  %8 = alloca i32, align 4
  %9 = alloca i32, align 4
  %10 = alloca i32, align 4
  %11 = alloca i32, align 4
  store ptr %0, ptr %3, align 8, !tbaa !4
  call void @llvm.lifetime.start.p0(i64 8, ptr %4) #7
  %12 = load ptr, ptr %3, align 8, !tbaa !4
  %13 = getelementptr inbounds nuw %struct.AVProbeData, ptr %12, i32 0, i32 1
  %14 = load ptr, ptr %13, align 8, !tbaa !9
  store ptr %14, ptr %4, align 8, !tbaa !13
  call void @llvm.lifetime.start.p0(i64 8, ptr %5) #7
  %15 = load ptr, ptr %4, align 8, !tbaa !13
  %16 = load ptr, ptr %3, align 8, !tbaa !4
  %17 = getelementptr inbounds nuw %struct.AVProbeData, ptr %16, i32 0, i32 2
  %18 = load i32, ptr %17, align 8, !tbaa !14
  %19 = sext i32 %18 to i64
  %20 = getelementptr inbounds i8, ptr %15, i64 %19
  store ptr %20, ptr %5, align 8, !tbaa !13
  call void @llvm.lifetime.start.p0(i64 4, ptr %6) #7
  store i32 0, ptr %6, align 4, !tbaa !15
  call void @llvm.lifetime.start.p0(i64 4, ptr %7) #7
  store i32 0, ptr %7, align 4, !tbaa !15
  %21 = load ptr, ptr %3, align 8, !tbaa !4
  %22 = getelementptr inbounds nuw %struct.AVProbeData, ptr %21, i32 0, i32 2
  %23 = load i32, ptr %22, align 8, !tbaa !14
  %24 = icmp slt i32 %23, 2352
  br i1 %24, label %25, label %26

25:                                               ; preds = %1
  store i32 0, ptr %2, align 4
  store i32 1, ptr %8, align 4
  br label %135

26:                                               ; preds = %1
  %27 = load ptr, ptr %3, align 8, !tbaa !4
  %28 = getelementptr inbounds nuw %struct.AVProbeData, ptr %27, i32 0, i32 1
  %29 = load ptr, ptr %28, align 8, !tbaa !9
  %30 = getelementptr inbounds i8, ptr %29, i64 0
  %31 = load i32, ptr %30, align 1, !tbaa !16
  %32 = icmp eq i32 %31, 1179011410
  br i1 %32, label %33, label %43

33:                                               ; preds = %26
  %34 = load ptr, ptr %3, align 8, !tbaa !4
  %35 = getelementptr inbounds nuw %struct.AVProbeData, ptr %34, i32 0, i32 1
  %36 = load ptr, ptr %35, align 8, !tbaa !9
  %37 = getelementptr inbounds i8, ptr %36, i64 8
  %38 = load i32, ptr %37, align 1, !tbaa !16
  %39 = icmp eq i32 %38, 1096303683
  br i1 %39, label %40, label %43

40:                                               ; preds = %33
  %41 = load ptr, ptr %4, align 8, !tbaa !13
  %42 = getelementptr inbounds i8, ptr %41, i64 44
  store ptr %42, ptr %4, align 8, !tbaa !13
  br label %43

43:                                               ; preds = %40, %33, %26
  br label %44

44:                                               ; preds = %119, %43
  %45 = load ptr, ptr %5, align 8, !tbaa !13
  %46 = load ptr, ptr %4, align 8, !tbaa !13
  %47 = ptrtoint ptr %45 to i64
  %48 = ptrtoint ptr %46 to i64
  %49 = sub i64 %47, %48
  %50 = icmp sge i64 %49, 2352
  br i1 %50, label %51, label %122

51:                                               ; preds = %44
  %52 = load ptr, ptr %4, align 8, !tbaa !13
  %53 = call i32 @memcmp(ptr noundef %52, ptr noundef @sync_header, i64 noundef 12) #8
  %54 = icmp ne i32 %53, 0
  br i1 %54, label %55, label %56

55:                                               ; preds = %51
  store i32 0, ptr %2, align 4
  store i32 1, ptr %8, align 4
  br label %135

56:                                               ; preds = %51
  %57 = load ptr, ptr %4, align 8, !tbaa !13
  %58 = getelementptr inbounds i8, ptr %57, i64 17
  %59 = load i8, ptr %58, align 1, !tbaa !16
  %60 = zext i8 %59 to i32
  %61 = icmp sge i32 %60, 32
  br i1 %61, label %62, label %63

62:                                               ; preds = %56
  store i32 0, ptr %2, align 4
  store i32 1, ptr %8, align 4
  br label %135

63:                                               ; preds = %56
  %64 = load ptr, ptr %4, align 8, !tbaa !13
  %65 = getelementptr inbounds i8, ptr %64, i64 18
  %66 = load i8, ptr %65, align 1, !tbaa !16
  %67 = zext i8 %66 to i32
  %68 = and i32 %67, 14
  switch i32 %68, label %110 [
    i32 8, label %69
    i32 2, label %69
    i32 4, label %99
  ]

69:                                               ; preds = %63, %63
  call void @llvm.lifetime.start.p0(i64 4, ptr %9) #7
  %70 = load ptr, ptr %4, align 8, !tbaa !13
  %71 = getelementptr inbounds i8, ptr %70, i64 28
  %72 = load i16, ptr %71, align 1, !tbaa !16
  %73 = zext i16 %72 to i32
  store i32 %73, ptr %9, align 4, !tbaa !15
  call void @llvm.lifetime.start.p0(i64 4, ptr %10) #7
  %74 = load ptr, ptr %4, align 8, !tbaa !13
  %75 = getelementptr inbounds i8, ptr %74, i64 30
  %76 = load i16, ptr %75, align 1, !tbaa !16
  %77 = zext i16 %76 to i32
  store i32 %77, ptr %10, align 4, !tbaa !15
  call void @llvm.lifetime.start.p0(i64 4, ptr %11) #7
  %78 = load ptr, ptr %4, align 8, !tbaa !13
  %79 = getelementptr inbounds i8, ptr %78, i64 36
  %80 = load i32, ptr %79, align 1, !tbaa !16
  store i32 %80, ptr %11, align 4, !tbaa !15
  %81 = load i32, ptr %11, align 4, !tbaa !15
  %82 = icmp sge i32 %81, 0
  br i1 %82, label %83, label %92

83:                                               ; preds = %69
  %84 = load i32, ptr %9, align 4, !tbaa !15
  %85 = load i32, ptr %10, align 4, !tbaa !15
  %86 = icmp slt i32 %84, %85
  br i1 %86, label %87, label %92

87:                                               ; preds = %83
  %88 = load i32, ptr %10, align 4, !tbaa !15
  %89 = mul nsw i32 %88, 2016
  %90 = load i32, ptr %11, align 4, !tbaa !15
  %91 = icmp sge i32 %89, %90
  br i1 %91, label %93, label %92

92:                                               ; preds = %87, %83, %69
  store i32 0, ptr %2, align 4
  store i32 1, ptr %8, align 4
  br label %96

93:                                               ; preds = %87
  %94 = load i32, ptr %7, align 4, !tbaa !15
  %95 = add nsw i32 %94, 1
  store i32 %95, ptr %7, align 4, !tbaa !15
  store i32 0, ptr %8, align 4
  br label %96

96:                                               ; preds = %93, %92
  call void @llvm.lifetime.end.p0(i64 4, ptr %11) #7
  call void @llvm.lifetime.end.p0(i64 4, ptr %10) #7
  call void @llvm.lifetime.end.p0(i64 4, ptr %9) #7
  %97 = load i32, ptr %8, align 4
  switch i32 %97, label %135 [
    i32 0, label %98
  ]

98:                                               ; preds = %96
  br label %119

99:                                               ; preds = %63
  %100 = load ptr, ptr %4, align 8, !tbaa !13
  %101 = getelementptr inbounds i8, ptr %100, i64 19
  %102 = load i8, ptr %101, align 1, !tbaa !16
  %103 = zext i8 %102 to i32
  %104 = and i32 %103, 42
  %105 = icmp ne i32 %104, 0
  br i1 %105, label %106, label %107

106:                                              ; preds = %99
  store i32 0, ptr %2, align 4
  store i32 1, ptr %8, align 4
  br label %135

107:                                              ; preds = %99
  %108 = load i32, ptr %6, align 4, !tbaa !15
  %109 = add nsw i32 %108, 1
  store i32 %109, ptr %6, align 4, !tbaa !15
  br label %119

110:                                              ; preds = %63
  %111 = load ptr, ptr %4, align 8, !tbaa !13
  %112 = getelementptr inbounds i8, ptr %111, i64 18
  %113 = load i8, ptr %112, align 1, !tbaa !16
  %114 = zext i8 %113 to i32
  %115 = and i32 %114, 14
  %116 = icmp ne i32 %115, 0
  br i1 %116, label %117, label %118

117:                                              ; preds = %110
  store i32 0, ptr %2, align 4
  store i32 1, ptr %8, align 4
  br label %135

118:                                              ; preds = %110
  br label %119

119:                                              ; preds = %118, %107, %98
  %120 = load ptr, ptr %4, align 8, !tbaa !13
  %121 = getelementptr inbounds i8, ptr %120, i64 2352
  store ptr %121, ptr %4, align 8, !tbaa !13
  br label %44, !llvm.loop !17

122:                                              ; preds = %44
  %123 = load i32, ptr %7, align 4, !tbaa !15
  %124 = load i32, ptr %6, align 4, !tbaa !15
  %125 = add nsw i32 %123, %124
  %126 = icmp sgt i32 %125, 3
  br i1 %126, label %127, label %128

127:                                              ; preds = %122
  store i32 50, ptr %2, align 4
  store i32 1, ptr %8, align 4
  br label %135

128:                                              ; preds = %122
  %129 = load i32, ptr %7, align 4, !tbaa !15
  %130 = load i32, ptr %6, align 4, !tbaa !15
  %131 = add nsw i32 %129, %130
  %132 = icmp ne i32 %131, 0
  br i1 %132, label %133, label %134

133:                                              ; preds = %128
  store i32 1, ptr %2, align 4
  store i32 1, ptr %8, align 4
  br label %135

134:                                              ; preds = %128
  store i32 0, ptr %2, align 4
  store i32 1, ptr %8, align 4
  br label %135

135:                                              ; preds = %134, %133, %127, %117, %106, %96, %62, %55, %25
  call void @llvm.lifetime.end.p0(i64 4, ptr %7) #7
  call void @llvm.lifetime.end.p0(i64 4, ptr %6) #7
  call void @llvm.lifetime.end.p0(i64 8, ptr %5) #7
  call void @llvm.lifetime.end.p0(i64 8, ptr %4) #7
  %136 = load i32, ptr %2, align 4
  ret i32 %136
}