; Function Attrs: nofree norecurse nounwind memory(read, inaccessiblemem: none) uwtable
define internal range(i32 0, 51) i32 @str_probe(ptr noundef readonly captures(none) %0) #0 {
  %2 = getelementptr inbounds nuw i8, ptr %0, i64 8
  %3 = load ptr, ptr %2, align 8, !tbaa !4
  %4 = getelementptr inbounds nuw i8, ptr %0, i64 16
  %5 = load i32, ptr %4, align 8, !tbaa !11
  %6 = sext i32 %5 to i64
  %7 = getelementptr inbounds i8, ptr %3, i64 %6
  %8 = icmp slt i32 %5, 2352
  br i1 %8, label %.thread, label %9

9:                                                ; preds = %1
  %10 = load i32, ptr %3, align 1, !tbaa !12
  %11 = icmp eq i32 %10, 1179011410
  br i1 %11, label %12, label %16

12:                                               ; preds = %9
  %13 = getelementptr inbounds nuw i8, ptr %3, i64 8
  %14 = load i32, ptr %13, align 1, !tbaa !12
  %15 = icmp eq i32 %14, 1096303683
  %spec.select.idx = select i1 %15, i64 44, i64 0
  %spec.select = getelementptr inbounds nuw i8, ptr %3, i64 %spec.select.idx
  br label %16

16:                                               ; preds = %12, %9
  %.030 = phi ptr [ %3, %9 ], [ %spec.select, %12 ]
  %17 = ptrtoint ptr %7 to i64
  %18 = ptrtoint ptr %.030 to i64
  %19 = sub i64 %17, %18
  %20 = icmp sgt i64 %19, 2351
  br i1 %20, label %.lr.ph, label %._crit_edge.thread

.lr.ph:                                           ; preds = %16, %48
  %.13154 = phi ptr [ %49, %48 ], [ %.030, %16 ]
  %.03253 = phi i32 [ %.133, %48 ], [ 0, %16 ]
  %.03552 = phi i32 [ %.237, %48 ], [ 0, %16 ]
  %bcmp = tail call i32 @bcmp(ptr noundef nonnull dereferenceable(12) %.13154, ptr noundef nonnull dereferenceable(12) @sync_header, i64 12)
  %.not41 = icmp eq i32 %bcmp, 0
  br i1 %.not41, label %21, label %.thread

21:                                               ; preds = %.lr.ph
  %22 = getelementptr inbounds nuw i8, ptr %.13154, i64 17
  %23 = load i8, ptr %22, align 1, !tbaa !12
  %24 = icmp ugt i8 %23, 31
  br i1 %24, label %.thread, label %25

25:                                               ; preds = %21
  %26 = getelementptr inbounds nuw i8, ptr %.13154, i64 18
  %27 = load i8, ptr %26, align 1, !tbaa !12
  %28 = and i8 %27, 14
  switch i8 %28, label %.thread [
    i8 8, label %29
    i8 2, label %29
    i8 4, label %42
    i8 0, label %48
  ]

29:                                               ; preds = %25, %25
  %30 = getelementptr inbounds nuw i8, ptr %.13154, i64 36
  %31 = load i32, ptr %30, align 1, !tbaa !12
  %32 = icmp sgt i32 %31, -1
  br i1 %32, label %33, label %.thread

33:                                               ; preds = %29
  %34 = getelementptr inbounds nuw i8, ptr %.13154, i64 30
  %35 = load i16, ptr %34, align 1, !tbaa !12
  %36 = zext i16 %35 to i32
  %37 = getelementptr inbounds nuw i8, ptr %.13154, i64 28
  %38 = load i16, ptr %37, align 1, !tbaa !12
  %39 = icmp ult i16 %38, %35
  %40 = mul nuw nsw i32 %36, 2016
  %.not43 = icmp samesign uge i32 %40, %31
  %or.cond.not = select i1 %39, i1 %.not43, i1 false
  %41 = zext i1 %or.cond.not to i32
  %spec.select45 = add nsw i32 %.03552, %41
  br i1 %or.cond.not, label %48, label %.thread

42:                                               ; preds = %25
  %43 = getelementptr inbounds nuw i8, ptr %.13154, i64 19
  %44 = load i8, ptr %43, align 1, !tbaa !12
  %45 = and i8 %44, 42
  %.not42 = icmp eq i8 %45, 0
  br i1 %.not42, label %46, label %.thread

46:                                               ; preds = %42
  %47 = add nsw i32 %.03253, 1
  br label %48

48:                                               ; preds = %25, %33, %46
  %.237 = phi i32 [ %.03552, %46 ], [ %spec.select45, %33 ], [ %.03552, %25 ]
  %.133 = phi i32 [ %47, %46 ], [ %.03253, %33 ], [ %.03253, %25 ]
  %49 = getelementptr inbounds nuw i8, ptr %.13154, i64 2352
  %50 = ptrtoint ptr %49 to i64
  %51 = sub i64 %17, %50
  %52 = icmp sgt i64 %51, 2351
  br i1 %52, label %.lr.ph, label %._crit_edge, !llvm.loop !13

._crit_edge:                                      ; preds = %48
  %53 = add nsw i32 %.133, %.237
  %54 = icmp sgt i32 %53, 3
  br i1 %54, label %.thread, label %._crit_edge.thread

._crit_edge.thread:                               ; preds = %16, %._crit_edge
  %55 = phi i32 [ %53, %._crit_edge ], [ 0, %16 ]
  %.not = icmp ne i32 %55, 0
  %. = zext i1 %.not to i32
  br label %.thread

.thread:                                          ; preds = %29, %25, %42, %21, %.lr.ph, %33, %._crit_edge.thread, %._crit_edge, %1
  %.0 = phi i32 [ 0, %1 ], [ 50, %._crit_edge ], [ %., %._crit_edge.thread ], [ 0, %33 ], [ 0, %.lr.ph ], [ 0, %21 ], [ 0, %42 ], [ 0, %25 ], [ 0, %29 ]
  ret i32 %.0
}